target datalayout = "e-m:e-p270:32:32-p271:32:32-p272:64:64-i64:64-i128:128-f80:128-n8:16:32:64-S128"
target triple = "x86_64-pc-linux-gnu"

%struct.jv = type { i8, i8, i16, i32, %union.anon }
%union.anon = type { ptr }
%struct.jq_state = type { ptr, ptr, ptr, ptr, ptr, %struct.jv, %struct.stack, i32, i32, i32, %struct.jv, %struct.jv, i32, i32, i32, i32, i32, %struct.jv, %struct.jv, %struct.jv, ptr, ptr, ptr, ptr, ptr, ptr }
%struct.stack = type { ptr, i32, i32 }
%struct.block = type { ptr, ptr }

@.str.17 = private unnamed_addr constant [12 x i8] c"<top-level>\00", align 1
@.str.18 = private unnamed_addr constant [18 x i8] c"jq: %d compile %s\00", align 1
@.str.19 = private unnamed_addr constant [7 x i8] c"errors\00", align 1
@.str.20 = private unnamed_addr constant [6 x i8] c"error\00", align 1
@.str.25 = private unnamed_addr constant [5 x i8] c"name\00", align 1
@.str.26 = private unnamed_addr constant [6 x i8] c"value\00", align 1

; Function Attrs: nounwind uwtable
define dso_local void @jq_report_error(ptr noundef %0, i64 %1, ptr %2) #0 {
  %4 = alloca %struct.jv, align 8
  %5 = alloca ptr, align 8
  %6 = getelementptr inbounds nuw { i64, ptr }, ptr %4, i32 0, i32 0
  store i64 %1, ptr %6, align 8
  %7 = getelementptr inbounds nuw { i64, ptr }, ptr %4, i32 0, i32 1
  store ptr %2, ptr %7, align 8
  store ptr %0, ptr %5, align 8, !tbaa !4
  %8 = load ptr, ptr %5, align 8, !tbaa !4
  %9 = getelementptr inbounds nuw %struct.jq_state, ptr %8, i32 0, i32 3
  %10 = load ptr, ptr %9, align 8, !tbaa !55
  %11 = load ptr, ptr %5, align 8, !tbaa !4
  %12 = getelementptr inbounds nuw %struct.jq_state, ptr %11, i32 0, i32 4
  %13 = load ptr, ptr %12, align 8, !tbaa !56
  %14 = getelementptr inbounds nuw { i64, ptr }, ptr %4, i32 0, i32 0
  %15 = load i64, ptr %14, align 8
  %16 = getelementptr inbounds nuw { i64, ptr }, ptr %4, i32 0, i32 1
  %17 = load ptr, ptr %16, align 8
  call void %10(ptr noundef %13, i64 %15, ptr %17)
  ret void
}

; Function Attrs: nounwind uwtable
define internal { i64, ptr } @args2obj(i64 %0, ptr %1) #0 {
  %3 = alloca %struct.jv, align 8
  %4 = alloca %struct.jv, align 8
  %5 = alloca %struct.jv, align 8
  %6 = alloca %struct.jv, align 8
  %7 = alloca i32, align 4
  %8 = alloca %struct.jv, align 8
  %9 = alloca i32, align 4
  %10 = alloca i32, align 4
  %11 = alloca i32, align 4
  %12 = alloca %struct.jv, align 8
  %13 = alloca %struct.jv, align 8
  %14 = alloca i1, align 1
  %15 = alloca %struct.jv, align 8
  %16 = alloca %struct.jv, align 8
  %17 = alloca %struct.jv, align 8
  %18 = alloca %struct.jv, align 8
  %19 = alloca %struct.jv, align 8
  %20 = getelementptr inbounds nuw { i64, ptr }, ptr %4, i32 0, i32 0
  store i64 %0, ptr %20, align 8
  %21 = getelementptr inbounds nuw { i64, ptr }, ptr %4, i32 0, i32 1
  store ptr %1, ptr %21, align 8
  %22 = getelementptr inbounds nuw { i64, ptr }, ptr %4, i32 0, i32 0
  %23 = load i64, ptr %22, align 8
  %24 = getelementptr inbounds nuw { i64, ptr }, ptr %4, i32 0, i32 1
  %25 = load ptr, ptr %24, align 8
  %26 = call i32 @jv_get_kind(i64 %23, ptr %25)
  %27 = icmp eq i32 %26, 7
  br i1 %27, label %28, label %29

28:                                               ; preds = %2
  call void @llvm.memcpy.p0.p0.i64(ptr align 8 %3, ptr align 8 %4, i64 16, i1 false), !tbaa.struct !18
  br label %164

29:                                               ; preds = %2
  %30 = call { i64, ptr } @jv_object()
  %31 = getelementptr inbounds nuw { i64, ptr }, ptr %3, i32 0, i32 0
  %32 = extractvalue { i64, ptr } %30, 0
  store i64 %32, ptr %31, align 8
  %33 = getelementptr inbounds nuw { i64, ptr }, ptr %3, i32 0, i32 1
  %34 = extractvalue { i64, ptr } %30, 1
  store ptr %34, ptr %33, align 8
  call void @llvm.lifetime.start.p0(i64 16, ptr %5) #7
  %35 = call { i64, ptr } @jv_string(ptr noundef @.str.25)
  %36 = getelementptr inbounds nuw { i64, ptr }, ptr %5, i32 0, i32 0
  %37 = extractvalue { i64, ptr } %35, 0
  store i64 %37, ptr %36, align 8
  %38 = getelementptr inbounds nuw { i64, ptr }, ptr %5, i32 0, i32 1
  %39 = extractvalue { i64, ptr } %35, 1
  store ptr %39, ptr %38, align 8
  call void @llvm.lifetime.start.p0(i64 16, ptr %6) #7
  %40 = call { i64, ptr } @jv_string(ptr noundef @.str.26)
  %41 = getelementptr inbounds nuw { i64, ptr }, ptr %6, i32 0, i32 0
  %42 = extractvalue { i64, ptr } %40, 0
  store i64 %42, ptr %41, align 8
  %43 = getelementptr inbounds nuw { i64, ptr }, ptr %6, i32 0, i32 1
  %44 = extractvalue { i64, ptr } %40, 1
  store ptr %44, ptr %43, align 8
  call void @llvm.lifetime.start.p0(i64 4, ptr %7) #7
  %45 = getelementptr inbounds nuw { i64, ptr }, ptr %4, i32 0, i32 0
  %46 = load i64, ptr %45, align 8
  %47 = getelementptr inbounds nuw { i64, ptr }, ptr %4, i32 0, i32 1
  %48 = load ptr, ptr %47, align 8
  %49 = call { i64, ptr } @jv_copy(i64 %46, ptr %48)
  %50 = getelementptr inbounds nuw { i64, ptr }, ptr %8, i32 0, i32 0
  %51 = extractvalue { i64, ptr } %49, 0
  store i64 %51, ptr %50, align 8
  %52 = getelementptr inbounds nuw { i64, ptr }, ptr %8, i32 0, i32 1
  %53 = extractvalue { i64, ptr } %49, 1
  store ptr %53, ptr %52, align 8
  %54 = getelementptr inbounds nuw { i64, ptr }, ptr %8, i32 0, i32 0
  %55 = load i64, ptr %54, align 8
  %56 = getelementptr inbounds nuw { i64, ptr }, ptr %8, i32 0, i32 1
  %57 = load ptr, ptr %56, align 8
  %58 = call i32 @jv_array_length(i64 %55, ptr %57)
  store i32 %58, ptr %7, align 4, !tbaa !21
  call void @llvm.lifetime.start.p0(i64 4, ptr %9) #7
  store i32 0, ptr %9, align 4, !tbaa !21
  call void @llvm.lifetime.start.p0(i64 4, ptr %10) #7
  store i32 1, ptr %10, align 4, !tbaa !21
  br label %59

59:                                               ; preds = %150, %29
  %60 = load i32, ptr %10, align 4, !tbaa !21
  %61 = icmp ne i32 %60, 0
  br i1 %61, label %63, label %62

62:                                               ; preds = %59
  store i32 2, ptr %11, align 4
  call void @llvm.lifetime.end.p0(i64 4, ptr %10) #7
  call void @llvm.lifetime.end.p0(i64 4, ptr %9) #7
  call void @llvm.lifetime.end.p0(i64 4, ptr %7) #7
  br label %151

63:                                               ; preds = %59
  call void @llvm.lifetime.start.p0(i64 16, ptr %12) #7
  br label %64

64:                                               ; preds = %146, %63
  %65 = load i32, ptr %9, align 4, !tbaa !21
  %66 = load i32, ptr %7, align 4, !tbaa !21
  %67 = icmp slt i32 %65, %66
  store i1 false, ptr %14, align 1
  br i1 %67, label %68, label %88

68:                                               ; preds = %64
  call void @llvm.lifetime.start.p0(i64 16, ptr %13) #7
  store i1 true, ptr %14, align 1
  %69 = getelementptr inbounds nuw { i64, ptr }, ptr %4, i32 0, i32 0
  %70 = load i64, ptr %69, align 8
  %71 = getelementptr inbounds nuw { i64, ptr }, ptr %4, i32 0, i32 1
  %72 = load ptr, ptr %71, align 8
  %73 = call { i64, ptr } @jv_copy(i64 %70, ptr %72)
  %74 = getelementptr inbounds nuw { i64, ptr }, ptr %15, i32 0, i32 0
  %75 = extractvalue { i64, ptr } %73, 0
  store i64 %75, ptr %74, align 8
  %76 = getelementptr inbounds nuw { i64, ptr }, ptr %15, i32 0, i32 1
  %77 = extractvalue { i64, ptr } %73, 1
  store ptr %77, ptr %76, align 8
  %78 = load i32, ptr %9, align 4, !tbaa !21
  %79 = getelementptr inbounds nuw { i64, ptr }, ptr %15, i32 0, i32 0
  %80 = load i64, ptr %79, align 8
  %81 = getelementptr inbounds nuw { i64, ptr }, ptr %15, i32 0, i32 1
  %82 = load ptr, ptr %81, align 8
  %83 = call { i64, ptr } @jv_array_get(i64 %80, ptr %82, i32 noundef %78)
  %84 = getelementptr inbounds nuw { i64, ptr }, ptr %13, i32 0, i32 0
  %85 = extractvalue { i64, ptr } %83, 0
  store i64 %85, ptr %84, align 8
  %86 = getelementptr inbounds nuw { i64, ptr }, ptr %13, i32 0, i32 1
  %87 = extractvalue { i64, ptr } %83, 1
  store ptr %87, ptr %86, align 8
  call void @llvm.memcpy.p0.p0.i64(ptr align 8 %12, ptr align 8 %13, i64 16, i1 false), !tbaa.struct !18
  call void @llvm.lifetime.end.p0(i64 16, ptr %13) #7
  br label %89

88:                                               ; preds = %64
  br label %89

89:                                               ; preds = %88, %68
  %90 = phi i32 [ 1, %68 ], [ 0, %88 ]
  %91 = icmp ne i32 %90, 0
  br i1 %91, label %93, label %92

92:                                               ; preds = %89
  store i32 5, ptr %11, align 4
  call void @llvm.lifetime.end.p0(i64 16, ptr %12) #7
  br label %149

93:                                               ; preds = %89
  call void @llvm.lifetime.start.p0(i64 16, ptr %16) #7
  %94 = getelementptr inbounds nuw { i64, ptr }, ptr %12, i32 0, i32 0
  %95 = load i64, ptr %94, align 8
  %96 = getelementptr inbounds nuw { i64, ptr }, ptr %12, i32 0, i32 1
  %97 = load ptr, ptr %96, align 8
  %98 = call { i64, ptr } @jv_copy(i64 %95, ptr %97)
  %99 = getelementptr inbounds nuw { i64, ptr }, ptr %18, i32 0, i32 0
  %100 = extractvalue { i64, ptr } %98, 0
  store i64 %100, ptr %99, align 8
  %101 = getelementptr inbounds nuw { i64, ptr }, ptr %18, i32 0, i32 1
  %102 = extractvalue { i64, ptr } %98, 1
  store ptr %102, ptr %101, align 8
  %103 = getelementptr inbounds nuw { i64, ptr }, ptr %18, i32 0, i32 0
  %104 = load i64, ptr %103, align 8
  %105 = getelementptr inbounds nuw { i64, ptr }, ptr %18, i32 0, i32 1
  %106 = load ptr, ptr %105, align 8
  %107 = getelementptr inbounds nuw { i64, ptr }, ptr %5, i32 0, i32 0
  %108 = load i64, ptr %107, align 8
  %109 = getelementptr inbounds nuw { i64, ptr }, ptr %5, i32 0, i32 1
  %110 = load ptr, ptr %109, align 8
  %111 = call { i64, ptr } @jv_object_get(i64 %104, ptr %106, i64 %108, ptr %110)
  %112 = getelementptr inbounds nuw { i64, ptr }, ptr %17, i32 0, i32 0
  %113 = extractvalue { i64, ptr } %111, 0
  store i64 %113, ptr %112, align 8
  %114 = getelementptr inbounds nuw { i64, ptr }, ptr %17, i32 0, i32 1
  %115 = extractvalue { i64, ptr } %111, 1
  store ptr %115, ptr %114, align 8
  %116 = getelementptr inbounds nuw { i64, ptr }, ptr %12, i32 0, i32 0
  %117 = load i64, ptr %116, align 8
  %118 = getelementptr inbounds nuw { i64, ptr }, ptr %12, i32 0, i32 1
  %119 = load ptr, ptr %118, align 8
  %120 = getelementptr inbounds nuw { i64, ptr }, ptr %6, i32 0, i32 0
  %121 = load i64, ptr %120, align 8
  %122 = getelementptr inbounds nuw { i64, ptr }, ptr %6, i32 0, i32 1
  %123 = load ptr, ptr %122, align 8
  %124 = call { i64, ptr } @jv_object_get(i64 %117, ptr %119, i64 %121, ptr %123)
  %125 = getelementptr inbounds nuw { i64, ptr }, ptr %19, i32 0, i32 0
  %126 = extractvalue { i64, ptr } %124, 0
  store i64 %126, ptr %125, align 8
  %127 = getelementptr inbounds nuw { i64, ptr }, ptr %19, i32 0, i32 1
  %128 = extractvalue { i64, ptr } %124, 1
  store ptr %128, ptr %127, align 8
  %129 = getelementptr inbounds nuw { i64, ptr }, ptr %3, i32 0, i32 0
  %130 = load i64, ptr %129, align 8
  %131 = getelementptr inbounds nuw { i64, ptr }, ptr %3, i32 0, i32 1
  %132 = load ptr, ptr %131, align 8
  %133 = getelementptr inbounds nuw { i64, ptr }, ptr %17, i32 0, i32 0
  %134 = load i64, ptr %133, align 8
  %135 = getelementptr inbounds nuw { i64, ptr }, ptr %17, i32 0, i32 1
  %136 = load ptr, ptr %135, align 8
  %137 = getelementptr inbounds nuw { i64, ptr }, ptr %19, i32 0, i32 0
  %138 = load i64, ptr %137, align 8
  %139 = getelementptr inbounds nuw { i64, ptr }, ptr %19, i32 0, i32 1
  %140 = load ptr, ptr %139, align 8
  %141 = call { i64, ptr } @jv_object_set(i64 %130, ptr %132, i64 %134, ptr %136, i64 %138, ptr %140)
  %142 = getelementptr inbounds nuw { i64, ptr }, ptr %16, i32 0, i32 0
  %143 = extractvalue { i64, ptr } %141, 0
  store i64 %143, ptr %142, align 8
  %144 = getelementptr inbounds nuw { i64, ptr }, ptr %16, i32 0, i32 1
  %145 = extractvalue { i64, ptr } %141, 1
  store ptr %145, ptr %144, align 8
  call void @llvm.memcpy.p0.p0.i64(ptr align 8 %3, ptr align 8 %16, i64 16, i1 false), !tbaa.struct !18
  call void @llvm.lifetime.end.p0(i64 16, ptr %16) #7
  br label %146

146:                                              ; preds = %93
  %147 = load i32, ptr %9, align 4, !tbaa !21
  %148 = add nsw i32 %147, 1
  store i32 %148, ptr %9, align 4, !tbaa !21
  br label %64, !llvm.loop !103

149:                                              ; preds = %92
  br label %150

150:                                              ; preds = %149
  store i32 0, ptr %10, align 4, !tbaa !21
  br label %59, !llvm.loop !104

151:                                              ; preds = %62
  %152 = getelementptr inbounds nuw { i64, ptr }, ptr %4, i32 0, i32 0
  %153 = load i64, ptr %152, align 8
  %154 = getelementptr inbounds nuw { i64, ptr }, ptr %4, i32 0, i32 1
  %155 = load ptr, ptr %154, align 8
  call void @jv_free(i64 %153, ptr %155)
  %156 = getelementptr inbounds nuw { i64, ptr }, ptr %5, i32 0, i32 0
  %157 = load i64, ptr %156, align 8
  %158 = getelementptr inbounds nuw { i64, ptr }, ptr %5, i32 0, i32 1
  %159 = load ptr, ptr %158, align 8
  call void @jv_free(i64 %157, ptr %159)
  %160 = getelementptr inbounds nuw { i64, ptr }, ptr %6, i32 0, i32 0
  %161 = load i64, ptr %160, align 8
  %162 = getelementptr inbounds nuw { i64, ptr }, ptr %6, i32 0, i32 1
  %163 = load ptr, ptr %162, align 8
  call void @jv_free(i64 %161, ptr %163)
  store i32 1, ptr %11, align 4
  call void @llvm.lifetime.end.p0(i64 16, ptr %6) #7
  call void @llvm.lifetime.end.p0(i64 16, ptr %5) #7
  br label %164

164:                                              ; preds = %151, %28
  %165 = load { i64, ptr }, ptr %3, align 8
  ret { i64, ptr } %165
}

; Function Attrs: nounwind uwtable
define dso_local i32 @jq_compile_args(ptr noundef %0, ptr noundef %1, i64 %2, ptr %3) #0 {
  %5 = alloca %struct.jv, align 8
  %6 = alloca ptr, align 8
  %7 = alloca ptr, align 8
  %8 = alloca ptr, align 8
  %9 = alloca %struct.block, align 8
  %10 = alloca i32, align 4
  %11 = alloca %struct.jv, align 8
  %12 = alloca %struct.jv, align 8
  %13 = getelementptr inbounds nuw { i64, ptr }, ptr %5, i32 0, i32 0
  store i64 %2, ptr %13, align 8
  %14 = getelementptr inbounds nuw { i64, ptr }, ptr %5, i32 0, i32 1
  store ptr %3, ptr %14, align 8
  store ptr %0, ptr %6, align 8, !tbaa !4
  store ptr %1, ptr %7, align 8, !tbaa !100
  %15 = load ptr, ptr %6, align 8, !tbaa !4
  %16 = getelementptr inbounds nuw %struct.jq_state, ptr %15, i32 0, i32 0
  %17 = load ptr, ptr %16, align 8, !tbaa !57
  %18 = load ptr, ptr %6, align 8, !tbaa !4
  %19 = getelementptr inbounds nuw %struct.jq_state, ptr %18, i32 0, i32 1
  %20 = load ptr, ptr %19, align 8, !tbaa !58
  call void @jv_nomem_handler(ptr noundef %17, ptr noundef %20)
  call void @llvm.lifetime.start.p0(i64 8, ptr %8) #7
  %21 = load ptr, ptr %6, align 8, !tbaa !4
  %22 = load ptr, ptr %7, align 8, !tbaa !100
  %23 = load ptr, ptr %7, align 8, !tbaa !100
  %24 = call i64 @strlen(ptr noundef %23) #8
  %25 = trunc i64 %24 to i32
  %26 = call ptr @locfile_init(ptr noundef %21, ptr noundef @.str.17, ptr noundef %22, i32 noundef %25)
  store ptr %26, ptr %8, align 8, !tbaa !101
  call void @llvm.lifetime.start.p0(i64 16, ptr %9) #7
  %27 = load ptr, ptr %6, align 8, !tbaa !4
  call void @jq_reset(ptr noundef %27)
  %28 = load ptr, ptr %6, align 8, !tbaa !4
  %29 = getelementptr inbounds nuw %struct.jq_state, ptr %28, i32 0, i32 2
  %30 = load ptr, ptr %29, align 8, !tbaa !90
  %31 = icmp ne ptr %30, null
  br i1 %31, label %32, label %38

32:                                               ; preds = %4
  %33 = load ptr, ptr %6, align 8, !tbaa !4
  %34 = getelementptr inbounds nuw %struct.jq_state, ptr %33, i32 0, i32 2
  %35 = load ptr, ptr %34, align 8, !tbaa !90
  call void @bytecode_free(ptr noundef %35)
  %36 = load ptr, ptr %6, align 8, !tbaa !4
  %37 = getelementptr inbounds nuw %struct.jq_state, ptr %36, i32 0, i32 2
  store ptr null, ptr %37, align 8, !tbaa !90
  br label %38

38:                                               ; preds = %32, %4
  call void @llvm.lifetime.start.p0(i64 4, ptr %10) #7
  %39 = load ptr, ptr %6, align 8, !tbaa !4
  %40 = load ptr, ptr %8, align 8, !tbaa !101
  %41 = call i32 @load_program(ptr noundef %39, ptr noundef %40, ptr noundef %9)
  store i32 %41, ptr %10, align 4, !tbaa !21
  %42 = load i32, ptr %10, align 4, !tbaa !21
  %43 = icmp eq i32 %42, 0
  br i1 %43, label %44, label %72

44:                                               ; preds = %38
  %45 = load ptr, ptr %6, align 8, !tbaa !4
  %46 = call i32 @builtins_bind(ptr noundef %45, ptr noundef %9)
  store i32 %46, ptr %10, align 4, !tbaa !21
  %47 = load i32, ptr %10, align 4, !tbaa !21
  %48 = icmp eq i32 %47, 0
  br i1 %48, label %49, label %71

49:                                               ; preds = %44
  %50 = load ptr, ptr %6, align 8, !tbaa !4
  %51 = getelementptr inbounds nuw %struct.jq_state, ptr %50, i32 0, i32 2
  %52 = load ptr, ptr %8, align 8, !tbaa !101
  %53 = getelementptr inbounds nuw { i64, ptr }, ptr %5, i32 0, i32 0
  %54 = load i64, ptr %53, align 8
  %55 = getelementptr inbounds nuw { i64, ptr }, ptr %5, i32 0, i32 1
  %56 = load ptr, ptr %55, align 8
  %57 = call { i64, ptr } @args2obj(i64 %54, ptr %56)
  %58 = getelementptr inbounds nuw { i64, ptr }, ptr %11, i32 0, i32 0
  %59 = extractvalue { i64, ptr } %57, 0
  store i64 %59, ptr %58, align 8
  %60 = getelementptr inbounds nuw { i64, ptr }, ptr %11, i32 0, i32 1
  %61 = extractvalue { i64, ptr } %57, 1
  store ptr %61, ptr %60, align 8
  %62 = getelementptr inbounds nuw { ptr, ptr }, ptr %9, i32 0, i32 0
  %63 = load ptr, ptr %62, align 8
  %64 = getelementptr inbounds nuw { ptr, ptr }, ptr %9, i32 0, i32 1
  %65 = load ptr, ptr %64, align 8
  %66 = getelementptr inbounds nuw { i64, ptr }, ptr %11, i32 0, i32 0
  %67 = load i64, ptr %66, align 8
  %68 = getelementptr inbounds nuw { i64, ptr }, ptr %11, i32 0, i32 1
  %69 = load ptr, ptr %68, align 8
  %70 = call i32 @block_compile(ptr %63, ptr %65, ptr noundef %51, ptr noundef %52, i64 %67, ptr %69)
  store i32 %70, ptr %10, align 4, !tbaa !21
  br label %71

71:                                               ; preds = %49, %44
  br label %77

72:                                               ; preds = %38
  %73 = getelementptr inbounds nuw { i64, ptr }, ptr %5, i32 0, i32 0
  %74 = load i64, ptr %73, align 8
  %75 = getelementptr inbounds nuw { i64, ptr }, ptr %5, i32 0, i32 1
  %76 = load ptr, ptr %75, align 8
  call void @jv_free(i64 %74, ptr %76)
  br label %77

77:                                               ; preds = %72, %71
  %78 = load i32, ptr %10, align 4, !tbaa !21
  %79 = icmp ne i32 %78, 0
  br i1 %79, label %80, label %95

80:                                               ; preds = %77
  %81 = load ptr, ptr %6, align 8, !tbaa !4
  %82 = load i32, ptr %10, align 4, !tbaa !21
  %83 = load i32, ptr %10, align 4, !tbaa !21
  %84 = icmp sgt i32 %83, 1
  %85 = select i1 %84, ptr @.str.19, ptr @.str.20
  %86 = call { i64, ptr } (ptr, ...) @jv_string_fmt(ptr noundef @.str.18, i32 noundef %82, ptr noundef %85)
  %87 = getelementptr inbounds nuw { i64, ptr }, ptr %12, i32 0, i32 0
  %88 = extractvalue { i64, ptr } %86, 0
  store i64 %88, ptr %87, align 8
  %89 = getelementptr inbounds nuw { i64, ptr }, ptr %12, i32 0, i32 1
  %90 = extractvalue { i64, ptr } %86, 1
  store ptr %90, ptr %89, align 8
  %91 = getelementptr inbounds nuw { i64, ptr }, ptr %12, i32 0, i32 0
  %92 = load i64, ptr %91, align 8
  %93 = getelementptr inbounds nuw { i64, ptr }, ptr %12, i32 0, i32 1
  %94 = load ptr, ptr %93, align 8
  call void @jq_report_error(ptr noundef %81, i64 %92, ptr %94)
  br label %95

95:                                               ; preds = %80, %77
  %96 = load ptr, ptr %6, align 8, !tbaa !4
  %97 = getelementptr inbounds nuw %struct.jq_state, ptr %96, i32 0, i32 2
  %98 = load ptr, ptr %97, align 8, !tbaa !90
  %99 = icmp ne ptr %98, null
  br i1 %99, label %100, label %107

100:                                              ; preds = %95
  %101 = load ptr, ptr %6, align 8, !tbaa !4
  %102 = getelementptr inbounds nuw %struct.jq_state, ptr %101, i32 0, i32 2
  %103 = load ptr, ptr %102, align 8, !tbaa !90
  %104 = call ptr @optimize(ptr noundef %103)
  %105 = load ptr, ptr %6, align 8, !tbaa !4
  %106 = getelementptr inbounds nuw %struct.jq_state, ptr %105, i32 0, i32 2
  store ptr %104, ptr %106, align 8, !tbaa !90
  br label %107

107:                                              ; preds = %100, %95
  %108 = load ptr, ptr %8, align 8, !tbaa !101
  call void @locfile_free(ptr noundef %108)
  %109 = load ptr, ptr %6, align 8, !tbaa !4
  %110 = getelementptr inbounds nuw %struct.jq_state, ptr %109, i32 0, i32 2
  %111 = load ptr, ptr %110, align 8, !tbaa !90
  %112 = icmp ne ptr %111, null
  %113 = zext i1 %112 to i32
  call void @llvm.lifetime.end.p0(i64 4, ptr %10) #7
  call void @llvm.lifetime.end.p0(i64 16, ptr %9) #7
  call void @llvm.lifetime.end.p0(i64 8, ptr %8) #7
  ret i32 %113
}