; Function Attrs: nounwind uwtable
define dso_local range(i32 0, 2) i32 @jq_compile_args(ptr noundef %0, ptr noundef %1, i64 %2, ptr %3) local_unnamed_addr #0 {
  %5 = alloca %struct.block, align 8
  %6 = load ptr, ptr %0, align 8, !tbaa !43
  %7 = getelementptr inbounds nuw i8, ptr %0, i64 8
  %8 = load ptr, ptr %7, align 8, !tbaa !44
  tail call void @jv_nomem_handler(ptr noundef %6, ptr noundef %8) #13
  %9 = tail call i64 @strlen(ptr noundef nonnull dereferenceable(1) %1) #15
  %10 = trunc i64 %9 to i32
  %11 = tail call ptr @locfile_init(ptr noundef nonnull %0, ptr noundef nonnull @.str.17, ptr noundef nonnull %1, i32 noundef %10) #13
  call void @llvm.lifetime.start.p0(i64 16, ptr nonnull %5) #13
  tail call fastcc void @jq_reset(ptr noundef nonnull %0)
  %12 = getelementptr inbounds nuw i8, ptr %0, i64 16
  %13 = load ptr, ptr %12, align 8, !tbaa !68
  %.not = icmp eq ptr %13, null
  br i1 %.not, label %15, label %14

14:                                               ; preds = %4
  tail call void @bytecode_free(ptr noundef nonnull %13) #13
  store ptr null, ptr %12, align 8, !tbaa !68
  br label %15

15:                                               ; preds = %14, %4
  %16 = call i32 @load_program(ptr noundef nonnull %0, ptr noundef %11, ptr noundef nonnull %5) #13
  %17 = icmp eq i32 %16, 0
  br i1 %17, label %18, label %56

18:                                               ; preds = %15
  %19 = call i32 @builtins_bind(ptr noundef nonnull %0, ptr noundef nonnull %5) #13
  %20 = icmp eq i32 %19, 0
  br i1 %20, label %21, label %.thread

21:                                               ; preds = %18
  %22 = call i32 @jv_get_kind(i64 %2, ptr %3) #13
  %23 = icmp eq i32 %22, 7
  br i1 %23, label %57, label %.preheader.i

.preheader.i:                                     ; preds = %21
  %24 = call { i64, ptr } @jv_object() #13
  %25 = extractvalue { i64, ptr } %24, 0
  %26 = extractvalue { i64, ptr } %24, 1
  %27 = call { i64, ptr } @jv_string(ptr noundef nonnull @.str.25) #13
  %28 = extractvalue { i64, ptr } %27, 0
  %29 = extractvalue { i64, ptr } %27, 1
  %30 = call { i64, ptr } @jv_string(ptr noundef nonnull @.str.26) #13
  %31 = extractvalue { i64, ptr } %30, 0
  %32 = extractvalue { i64, ptr } %30, 1
  %33 = call { i64, ptr } @jv_copy(i64 %2, ptr %3) #13
  %34 = extractvalue { i64, ptr } %33, 0
  %35 = extractvalue { i64, ptr } %33, 1
  %36 = call i32 @jv_array_length(i64 %34, ptr %35) #13
  %.not3944.i = icmp sgt i32 %36, 0
  br i1 %.not3944.i, label %.lr.ph.i, label %.loopexit.i

.loopexit.i:                                      ; preds = %.lr.ph.i, %.preheader.i
  %.sroa.034.1.lcssa.i = phi i64 [ %25, %.preheader.i ], [ %53, %.lr.ph.i ]
  %.sroa.536.1.lcssa.i = phi ptr [ %26, %.preheader.i ], [ %54, %.lr.ph.i ]
  call void @jv_free(i64 %2, ptr %3) #13
  call void @jv_free(i64 %28, ptr %29) #13
  call void @jv_free(i64 %31, ptr %32) #13
  br label %57

.lr.ph.i:                                         ; preds = %.preheader.i, %.lr.ph.i
  %.sroa.536.247.i = phi ptr [ %54, %.lr.ph.i ], [ %26, %.preheader.i ]
  %.sroa.034.246.i = phi i64 [ %53, %.lr.ph.i ], [ %25, %.preheader.i ]
  %.145.i = phi i32 [ %55, %.lr.ph.i ], [ 0, %.preheader.i ]
  %37 = call { i64, ptr } @jv_copy(i64 %2, ptr %3) #13
  %38 = extractvalue { i64, ptr } %37, 0
  %39 = extractvalue { i64, ptr } %37, 1
  %40 = call { i64, ptr } @jv_array_get(i64 %38, ptr %39, i32 noundef %.145.i) #13
  %41 = extractvalue { i64, ptr } %40, 0
  %42 = extractvalue { i64, ptr } %40, 1
  %43 = call { i64, ptr } @jv_copy(i64 %41, ptr %42) #13
  %44 = extractvalue { i64, ptr } %43, 0
  %45 = extractvalue { i64, ptr } %43, 1
  %46 = call { i64, ptr } @jv_object_get(i64 %44, ptr %45, i64 %28, ptr %29) #13
  %47 = extractvalue { i64, ptr } %46, 0
  %48 = extractvalue { i64, ptr } %46, 1
  %49 = call { i64, ptr } @jv_object_get(i64 %41, ptr %42, i64 %31, ptr %32) #13
  %50 = extractvalue { i64, ptr } %49, 0
  %51 = extractvalue { i64, ptr } %49, 1
  %52 = call { i64, ptr } @jv_object_set(i64 %.sroa.034.246.i, ptr %.sroa.536.247.i, i64 %47, ptr %48, i64 %50, ptr %51) #13
  %53 = extractvalue { i64, ptr } %52, 0
  %54 = extractvalue { i64, ptr } %52, 1
  %55 = add nuw nsw i32 %.145.i, 1
  %exitcond.not.i = icmp eq i32 %55, %36
  br i1 %exitcond.not.i, label %.loopexit.i, label %.lr.ph.i, !llvm.loop !73

56:                                               ; preds = %15
  call void @jv_free(i64 %2, ptr %3) #13
  br label %.thread

57:                                               ; preds = %.loopexit.i, %21
  %.sroa.034.0.i = phi i64 [ %.sroa.034.1.lcssa.i, %.loopexit.i ], [ %2, %21 ]
  %.sroa.536.0.i = phi ptr [ %.sroa.536.1.lcssa.i, %.loopexit.i ], [ %3, %21 ]
  %58 = load ptr, ptr %5, align 8
  %59 = getelementptr inbounds nuw i8, ptr %5, i64 8
  %60 = load ptr, ptr %59, align 8
  %61 = call i32 @block_compile(ptr %58, ptr %60, ptr noundef nonnull %12, ptr noundef %11, i64 %.sroa.034.0.i, ptr %.sroa.536.0.i) #13
  %.not33 = icmp eq i32 %61, 0
  br i1 %.not33, label %71, label %.thread

.thread:                                          ; preds = %56, %18, %57
  %.037 = phi i32 [ %61, %57 ], [ %16, %56 ], [ %19, %18 ]
  %62 = icmp sgt i32 %.037, 1
  %63 = select i1 %62, ptr @.str.19, ptr @.str.20
  %64 = call { i64, ptr } (ptr, ...) @jv_string_fmt(ptr noundef nonnull @.str.18, i32 noundef %.037, ptr noundef nonnull %63) #13
  %65 = extractvalue { i64, ptr } %64, 0
  %66 = extractvalue { i64, ptr } %64, 1
  %67 = getelementptr inbounds nuw i8, ptr %0, i64 24
  %68 = load ptr, ptr %67, align 8, !tbaa !41
  %69 = getelementptr inbounds nuw i8, ptr %0, i64 32
  %70 = load ptr, ptr %69, align 8, !tbaa !42
  call void %68(ptr noundef %70, i64 %65, ptr %66) #13
  br label %71

71:                                               ; preds = %.thread, %57
  %72 = load ptr, ptr %12, align 8, !tbaa !68
  %.not34 = icmp eq ptr %72, null
  br i1 %.not34, label %75, label %73

73:                                               ; preds = %71
  %74 = call fastcc ptr @optimize(ptr noundef nonnull %72)
  store ptr %72, ptr %12, align 8, !tbaa !68
  br label %75

75:                                               ; preds = %73, %71
  call void @locfile_free(ptr noundef %11) #13
  %76 = load ptr, ptr %12, align 8, !tbaa !68
  %77 = icmp ne ptr %76, null
  %78 = zext i1 %77 to i32
  call void @llvm.lifetime.end.p0(i64 16, ptr nonnull %5) #13
  ret i32 %78
}